; Function Attrs: mustprogress nounwind uwtable
define internal void @_ZNK12_GLOBAL__N_113AddressResult7genCodeERN4llvm11raw_ostreamERNS_21CodeGenParamAllocatorE(ptr nocapture noundef nonnull readonly align 8 dereferenceable(92) %0, ptr noundef nonnull align 8 dereferenceable(48) %1, ptr nocapture nonnull readnone align 8 %2) unnamed_addr #0 align 2 {
  %4 = alloca %"class.std::__cxx11::basic_string", align 8
  %5 = alloca %"class.std::__cxx11::basic_string", align 8
  %6 = getelementptr inbounds nuw i8, ptr %1, i64 24
  %7 = load ptr, ptr %6, align 8
  %8 = getelementptr inbounds nuw i8, ptr %1, i64 32
  %9 = load ptr, ptr %8, align 8
  %10 = ptrtoint ptr %7 to i64
  %11 = ptrtoint ptr %9 to i64
  %12 = sub i64 %10, %11
  %13 = icmp ult i64 %12, 8
  br i1 %13, label %14, label %16

14:                                               ; preds = %3
  %15 = tail call noundef nonnull align 8 dereferenceable(48) ptr @_ZN4llvm11raw_ostream5writeEPKcm(ptr noundef nonnull align 8 dereferenceable(48) %1, ptr noundef nonnull @.str.154, i64 noundef 8) #22
  br label %_ZN4llvm11raw_ostreamlsEPKc.exit

16:                                               ; preds = %3
  store i64 2914800263386915905, ptr %9, align 1
  %17 = load ptr, ptr %8, align 8
  %18 = getelementptr inbounds i8, ptr %17, i64 8
  store ptr %18, ptr %8, align 8
  br label %_ZN4llvm11raw_ostreamlsEPKc.exit

_ZN4llvm11raw_ostreamlsEPKc.exit:                 ; preds = %14, %16
  %.0.i.i = phi ptr [ %15, %14 ], [ %1, %16 ]
  %19 = getelementptr inbounds nuw i8, ptr %0, i64 64
  %.val = load ptr, ptr %19, align 8
  %20 = getelementptr inbounds nuw i8, ptr %.val, i64 56
  store i8 1, ptr %20, align 8, !noalias !396
  %21 = getelementptr inbounds nuw i8, ptr %.val, i64 24
  call void @_ZNSt7__cxx1112basic_stringIcSt11char_traitsIcESaIcEEC1ERKS4_(ptr noundef nonnull align 8 dereferenceable(32) %4, ptr noundef nonnull align 8 dereferenceable(32) %21) #22
  %22 = call noundef ptr @_ZNKSt7__cxx1112basic_stringIcSt11char_traitsIcESaIcEE4dataEv(ptr noundef nonnull align 8 dereferenceable(32) %4) #22
  %23 = call noundef i64 @_ZNKSt7__cxx1112basic_stringIcSt11char_traitsIcESaIcEE6lengthEv(ptr noundef nonnull align 8 dereferenceable(32) %4) #22
  %24 = call noundef nonnull align 8 dereferenceable(48) ptr @_ZN4llvm11raw_ostream5writeEPKcm(ptr noundef nonnull align 8 dereferenceable(48) %.0.i.i, ptr noundef %22, i64 noundef %23) #22
  %25 = getelementptr inbounds nuw i8, ptr %24, i64 24
  %26 = load ptr, ptr %25, align 8
  %27 = getelementptr inbounds nuw i8, ptr %24, i64 32
  %28 = load ptr, ptr %27, align 8
  %29 = ptrtoint ptr %26 to i64
  %30 = ptrtoint ptr %28 to i64
  %31 = sub i64 %29, %30
  %32 = icmp ult i64 %31, 2
  br i1 %32, label %33, label %35

33:                                               ; preds = %_ZN4llvm11raw_ostreamlsEPKc.exit
  %34 = call noundef nonnull align 8 dereferenceable(48) ptr @_ZN4llvm11raw_ostream5writeEPKcm(ptr noundef nonnull align 8 dereferenceable(48) %24, ptr noundef nonnull @.str.52, i64 noundef 2) #22
  br label %_ZN4llvm11raw_ostreamlsEPKc.exit4

35:                                               ; preds = %_ZN4llvm11raw_ostreamlsEPKc.exit
  store i16 8236, ptr %28, align 1
  %36 = load ptr, ptr %27, align 8
  %37 = getelementptr inbounds i8, ptr %36, i64 2
  store ptr %37, ptr %27, align 8
  br label %_ZN4llvm11raw_ostreamlsEPKc.exit4

_ZN4llvm11raw_ostreamlsEPKc.exit4:                ; preds = %33, %35
  %.0.i.i3 = phi ptr [ %34, %33 ], [ %24, %35 ]
  %38 = getelementptr inbounds nuw i8, ptr %0, i64 80
  %39 = load ptr, ptr %38, align 8
  %40 = load ptr, ptr %39, align 8
  %41 = getelementptr inbounds i8, ptr %40, i64 48
  %42 = load ptr, ptr %41, align 8
  call void %42(ptr dead_on_unwind nonnull writable sret(%"class.std::__cxx11::basic_string") align 8 %5, ptr noundef nonnull align 8 dereferenceable(12) %39) #22
  %43 = call noundef ptr @_ZNKSt7__cxx1112basic_stringIcSt11char_traitsIcESaIcEE4dataEv(ptr noundef nonnull align 8 dereferenceable(32) %5) #22
  %44 = call noundef i64 @_ZNKSt7__cxx1112basic_stringIcSt11char_traitsIcESaIcEE6lengthEv(ptr noundef nonnull align 8 dereferenceable(32) %5) #22
  %45 = call noundef nonnull align 8 dereferenceable(48) ptr @_ZN4llvm11raw_ostream5writeEPKcm(ptr noundef nonnull align 8 dereferenceable(48) %.0.i.i3, ptr noundef %43, i64 noundef %44) #22
  %46 = getelementptr inbounds nuw i8, ptr %45, i64 24
  %47 = load ptr, ptr %46, align 8
  %48 = getelementptr inbounds nuw i8, ptr %45, i64 32
  %49 = load ptr, ptr %48, align 8
  %50 = ptrtoint ptr %47 to i64
  %51 = ptrtoint ptr %49 to i64
  %52 = sub i64 %50, %51
  %53 = icmp ult i64 %52, 26
  br i1 %53, label %54, label %56

54:                                               ; preds = %_ZN4llvm11raw_ostreamlsEPKc.exit4
  %55 = call noundef nonnull align 8 dereferenceable(48) ptr @_ZN4llvm11raw_ostream5writeEPKcm(ptr noundef nonnull align 8 dereferenceable(48) %45, ptr noundef nonnull @.str.155, i64 noundef 26) #22
  br label %_ZN4llvm11raw_ostreamlsEPKc.exit7

56:                                               ; preds = %_ZN4llvm11raw_ostreamlsEPKc.exit4
  call void @llvm.memcpy.p0.p0.i64(ptr noundef nonnull align 1 dereferenceable(26) %49, ptr noundef nonnull align 1 dereferenceable(26) @.str.155, i64 26, i1 false)
  %57 = load ptr, ptr %48, align 8
  %58 = getelementptr inbounds i8, ptr %57, i64 26
  store ptr %58, ptr %48, align 8
  br label %_ZN4llvm11raw_ostreamlsEPKc.exit7

_ZN4llvm11raw_ostreamlsEPKc.exit7:                ; preds = %54, %56
  %.0.i.i6 = phi ptr [ %55, %54 ], [ %45, %56 ]
  %59 = getelementptr inbounds nuw i8, ptr %0, i64 88
  %60 = load i32, ptr %59, align 8
  %61 = zext i32 %60 to i64
  %62 = call noundef nonnull align 8 dereferenceable(48) ptr @_ZN4llvm11raw_ostreamlsEm(ptr noundef nonnull align 8 dereferenceable(48) %.0.i.i6, i64 noundef %61) #22
  %63 = getelementptr inbounds nuw i8, ptr %62, i64 24
  %64 = load ptr, ptr %63, align 8
  %65 = getelementptr inbounds nuw i8, ptr %62, i64 32
  %66 = load ptr, ptr %65, align 8
  %67 = ptrtoint ptr %64 to i64
  %68 = ptrtoint ptr %66 to i64
  %69 = sub i64 %67, %68
  %70 = icmp ult i64 %69, 2
  br i1 %70, label %71, label %73

71:                                               ; preds = %_ZN4llvm11raw_ostreamlsEPKc.exit7
  %72 = call noundef nonnull align 8 dereferenceable(48) ptr @_ZN4llvm11raw_ostream5writeEPKcm(ptr noundef nonnull align 8 dereferenceable(48) %62, ptr noundef nonnull @.str.96, i64 noundef 2) #22
  br label %_ZN4llvm11raw_ostreamlsEPKc.exit10

73:                                               ; preds = %_ZN4llvm11raw_ostreamlsEPKc.exit7
  store i16 10537, ptr %66, align 1
  %74 = load ptr, ptr %65, align 8
  %75 = getelementptr inbounds i8, ptr %74, i64 2
  store ptr %75, ptr %65, align 8
  br label %_ZN4llvm11raw_ostreamlsEPKc.exit10

_ZN4llvm11raw_ostreamlsEPKc.exit10:               ; preds = %71, %73
  call void @_ZNSt7__cxx1112basic_stringIcSt11char_traitsIcESaIcEED1Ev(ptr noundef nonnull align 8 dereferenceable(32) %5) #22
  call void @_ZNSt7__cxx1112basic_stringIcSt11char_traitsIcESaIcEED1Ev(ptr noundef nonnull align 8 dereferenceable(32) %4) #22
  ret void
}